	.file	"overflow.c"
	.text
	.globl	N
	.section	.rodata
	.align 4
	.type	N, @object
	.size	N, 4
N:
	.long	4194304
.LC0:
	.string	"%d\n"
	.text
	.globl	func
	.type	func, @function
func:
.LFB6:
	.cfi_startproc
	pushq	%rbp
	.cfi_def_cfa_offset 16
	.cfi_offset 6, -16
	movq	%rsp, %rbp
	.cfi_def_cfa_register 6
	subq	$32, %rsp
	movl	$4194304, %eax
	movl	%eax, %esi
	movl	$.LC0, %edi
	movl	$0, %eax
	call	printf
	movl	$32, %esi
	movl	$.LC0, %edi
	movl	$0, %eax
	call	printf
	movl	$0, %eax
	leave
	.cfi_def_cfa 7, 8
	ret
	.cfi_endproc
.LFE6:
	.size	func, .-func
	.section	.rodata
.LC1:
	.string	"%lx\n"
	.text
	.globl	main
	.type	main, @function
main:
.LFB7:
	.cfi_startproc
	pushq	%rbp
	.cfi_def_cfa_offset 16
	.cfi_offset 6, -16
	movq	%rsp, %rbp
	.cfi_def_cfa_register 6
	subq	$16, %rsp
#APP
# 20 "overflow.c" 1
	movq %rsp, -8(%rbp)
# 0 "" 2
#NO_APP
	movq	-8(%rbp), %rax
	movq	%rax, %rsi
	movl	$.LC1, %edi
	movl	$0, %eax
	call	printf
#APP
# 23 "overflow.c" 1
	movq %rbp, -16(%rbp)
# 0 "" 2
#NO_APP
	movq	-16(%rbp), %rax
	movq	%rax, %rsi
	movl	$.LC1, %edi
	movl	$0, %eax
	call	printf
	movl	$0, %eax
	leave
	.cfi_def_cfa 7, 8
	ret
	.cfi_endproc
.LFE7:
	.size	main, .-main
	.ident	"GCC: (GNU) 8.3.1 20191121 (Red Hat 8.3.1-5)"
	.section	.note.GNU-stack,"",@progbits
